; Function Attrs: mustprogress uwtable
define void @_ZN3g2o9VertexTagC2Ev(ptr noundef nonnull align 8 dereferenceable(160) %0) unnamed_addr #4 align 2 personality ptr @__gxx_personality_v0 {
  tail call void @_ZN3g2o9RobotDataC2Ev(ptr noundef nonnull align 8 dereferenceable(104) %0)
  store ptr getelementptr inbounds nuw inrange(-16, 40) (i8, ptr @_ZTVN3g2o9VertexTagE, i64 16), ptr %0, align 8, !tbaa !3
  %2 = getelementptr inbounds nuw i8, ptr %0, i64 104
  %3 = getelementptr inbounds nuw i8, ptr %0, i64 120
  store ptr %3, ptr %2, align 8, !tbaa !6
  %4 = getelementptr inbounds nuw i8, ptr %0, i64 112
  store i64 0, ptr %4, align 8, !tbaa !11
  store i8 0, ptr %3, align 8, !tbaa !14
  ret void
}